; Function Attrs: mustprogress nofree norecurse nosync nounwind willreturn memory(argmem: read) uwtable
define { ptr, ptr } @_ZN5folly15rtrimWhitespaceENS_5RangeIPKcEE(ptr %0, ptr %1) local_unnamed_addr #0 {
  %3 = ptrtoint ptr %0 to i64
  br label %4

.loopexit:                                        ; preds = %7, %7, %7
  br label %4

4:                                                ; preds = %.loopexit, %2
  %.sroa.4.0 = phi ptr [ %1, %2 ], [ %8, %.loopexit ]
  br label %5

5:                                                ; preds = %7, %4
  %.sroa.4.1 = phi ptr [ %.sroa.4.0, %4 ], [ %8, %7 ]
  %6 = icmp eq ptr %0, %.sroa.4.1
  br i1 %6, label %.critedge.thread.loopexit, label %7

7:                                                ; preds = %5
  %8 = getelementptr inbounds i8, ptr %.sroa.4.1, i64 -1
  %9 = load i8, ptr %8, align 1, !tbaa !7
  switch i8 %9, label %.critedge.thread [
    i8 32, label %5
    i8 13, label %.loopexit
    i8 10, label %.loopexit
    i8 9, label %.loopexit
  ], !llvm.loop !13

.critedge.thread.loopexit:                        ; preds = %5
  %scevgep.le = getelementptr i8, ptr %.sroa.4.0, i64 %3
  %.sroa.4.013.le = ptrtoint ptr %.sroa.4.0 to i64
  %10 = sub i64 0, %.sroa.4.013.le
  %scevgep14.le = getelementptr i8, ptr %scevgep.le, i64 %10
  br label %.critedge.thread

.critedge.thread:                                 ; preds = %7, %.critedge.thread.loopexit
  %.sroa.4.112 = phi ptr [ %scevgep14.le, %.critedge.thread.loopexit ], [ %.sroa.4.1, %7 ]
  %.fca.0.insert = insertvalue { ptr, ptr } poison, ptr %0, 0
  %.fca.1.insert = insertvalue { ptr, ptr } %.fca.0.insert, ptr %.sroa.4.112, 1
  ret { ptr, ptr } %.fca.1.insert
}